; Function Attrs: mustprogress nounwind uwtable
define hidden void @_ZN4cvc58internal6theory11quantifiers11SynthEngineD0Ev(ptr noundef nonnull align 8 dereferenceable(120) %this) unnamed_addr #6 align 2 personality ptr @__gxx_personality_v0 {
entry:
  store ptr getelementptr inbounds ({ [16 x ptr] }, ptr @_ZTVN4cvc58internal6theory11quantifiers11SynthEngineE, i64 0, i32 0, i64 2), ptr %this, align 8
  %d_conjs.i = getelementptr inbounds i8, ptr %this, i64 48
  %0 = load ptr, ptr %d_conjs.i, align 8
  %_M_finish.i.i = getelementptr inbounds i8, ptr %this, i64 56
  %1 = load ptr, ptr %_M_finish.i.i, align 8
  %cmp.not3.i.i.i.i.i = icmp eq ptr %0, %1
  br i1 %cmp.not3.i.i.i.i.i, label %invoke.cont.i.i, label %for.body.i.i.i.i.i

for.body.i.i.i.i.i:                               ; preds = %entry, %_ZSt8_DestroyISt10unique_ptrIN4cvc58internal6theory11quantifiers15SynthConjectureESt14default_deleteIS5_EEEvPT_.exit.i.i.i.i.i
  %__first.addr.04.i.i.i.i.i = phi ptr [ %incdec.ptr.i.i.i.i.i, %_ZSt8_DestroyISt10unique_ptrIN4cvc58internal6theory11quantifiers15SynthConjectureESt14default_deleteIS5_EEEvPT_.exit.i.i.i.i.i ], [ %0, %entry ]
  %2 = load ptr, ptr %__first.addr.04.i.i.i.i.i, align 8
  %cmp.not.i.i.i.i.i.i.i = icmp eq ptr %2, null
  br i1 %cmp.not.i.i.i.i.i.i.i, label %_ZSt8_DestroyISt10unique_ptrIN4cvc58internal6theory11quantifiers15SynthConjectureESt14default_deleteIS5_EEEvPT_.exit.i.i.i.i.i, label %_ZNKSt14default_deleteIN4cvc58internal6theory11quantifiers15SynthConjectureEEclEPS4_.exit.i.i.i.i.i.i.i

_ZNKSt14default_deleteIN4cvc58internal6theory11quantifiers15SynthConjectureEEclEPS4_.exit.i.i.i.i.i.i.i: ; preds = %for.body.i.i.i.i.i
  %vtable.i.i.i.i.i.i.i.i = load ptr, ptr %2, align 8
  %vfn.i.i.i.i.i.i.i.i = getelementptr inbounds i8, ptr %vtable.i.i.i.i.i.i.i.i, i64 8
  %3 = load ptr, ptr %vfn.i.i.i.i.i.i.i.i, align 8
  tail call void %3(ptr noundef nonnull align 8 dereferenceable(912) %2) #18
  br label %_ZSt8_DestroyISt10unique_ptrIN4cvc58internal6theory11quantifiers15SynthConjectureESt14default_deleteIS5_EEEvPT_.exit.i.i.i.i.i

_ZSt8_DestroyISt10unique_ptrIN4cvc58internal6theory11quantifiers15SynthConjectureESt14default_deleteIS5_EEEvPT_.exit.i.i.i.i.i: ; preds = %_ZNKSt14default_deleteIN4cvc58internal6theory11quantifiers15SynthConjectureEEclEPS4_.exit.i.i.i.i.i.i.i, %for.body.i.i.i.i.i
  store ptr null, ptr %__first.addr.04.i.i.i.i.i, align 8
  %incdec.ptr.i.i.i.i.i = getelementptr inbounds i8, ptr %__first.addr.04.i.i.i.i.i, i64 8
  %cmp.not.i.i.i.i.i = icmp eq ptr %incdec.ptr.i.i.i.i.i, %1
  br i1 %cmp.not.i.i.i.i.i, label %invoke.contthread-pre-split.i.i, label %for.body.i.i.i.i.i, !llvm.loop !11

invoke.contthread-pre-split.i.i:                  ; preds = %_ZSt8_DestroyISt10unique_ptrIN4cvc58internal6theory11quantifiers15SynthConjectureESt14default_deleteIS5_EEEvPT_.exit.i.i.i.i.i
  %.pr.i.i = load ptr, ptr %d_conjs.i, align 8
  br label %invoke.cont.i.i

invoke.cont.i.i:                                  ; preds = %invoke.contthread-pre-split.i.i, %entry
  %4 = phi ptr [ %.pr.i.i, %invoke.contthread-pre-split.i.i ], [ %0, %entry ]
  %tobool.not.i.i.i.i = icmp eq ptr %4, null
  br i1 %tobool.not.i.i.i.i, label %_ZN4cvc58internal6theory11quantifiers11SynthEngineD2Ev.exit, label %if.then.i.i.i.i

if.then.i.i.i.i:                                  ; preds = %invoke.cont.i.i
  tail call void @_ZdlPv(ptr noundef nonnull %4) #17
  br label %_ZN4cvc58internal6theory11quantifiers11SynthEngineD2Ev.exit

_ZN4cvc58internal6theory11quantifiers11SynthEngineD2Ev.exit: ; preds = %invoke.cont.i.i, %if.then.i.i.i.i
  tail call void @_ZdlPv(ptr noundef nonnull %this) #17
  ret void
}